(dp1
I1
(lp2
I0
aF0
aF15.217391304347826
aF35.375494071146242
aF45.8498023715415
aF52.173913043478258
aF55.335968379446641
aF58.102766798418969
aF61.067193675889328
aF64.031620553359687
aF66.205533596837938
asI2
(lp3
I0
aF0
aF2.9619805481874448
aF13.992042440318302
aF21.993810786914235
aF27.939876215738284
aF33.222811671087534
aF37.798408488063657
aF40.937223695844388
aF43.854995579133508
aF46.352785145888596
asI3
(lp4
I0
aF0
aF0.69284064665127021
aF7.159353348729792
aF10.277136258660509
aF12.009237875288683
aF13.279445727482679
aF14.203233256351039
aF15.242494226327944
aF16.05080831408776
aF16.628175519630485
asI4
(lp5
I0
aF0
aF0
aF0.77016619375760031
aF1.6214025131738954
aF2.3104985812728009
aF3.2428050263477908
aF4.2561815970814756
aF5.1884880421564654
aF5.7559789217673289
aF6.5666801783542761
asI5
(lp6
I0
aF4.7430830039525693
aF41.10671936758893
aF55.335968379446641
aF60.474308300395258
aF64.229249011857704
aF66.205533596837938
aF69.169960474308297
aF70.750988142292485
aF72.727272727272734
aF74.505928853754938
asI6
(lp7
I0
aF0
aF1.5120967741935485
aF6.55241935483871
aF9.7782258064516121
aF11.794354838709678
aF13.306451612903226
aF14.919354838709678
aF17.237903225806452
aF19.153225806451612
aF20.66532258064516
asI7
(lp8
I0
aF0.36945812807881773
aF10.344827586206897
aF26.970443349753694
aF33.004926108374384
aF37.192118226600982
aF40.024630541871922
aF42.610837438423644
aF44.088669950738918
aF45.443349753694584
aF46.674876847290641
asI8
(lp9
I0
aF10.135135135135135
aF67.117117117117118
aF82.957957957957959
aF87.837837837837839
aF89.114114114114116
aF89.789789789789793
aF90.24024024024024
aF90.765765765765764
aF91.066066066066071
aF91.366366366366364
asI9
(lp10
I0
aF1.0695187165775402
aF18.71657754010695
aF46.613190730837786
aF57.932263814616753
aF62.923351158645275
aF66.577540106951872
aF68.805704099821753
aF70.677361853832437
aF72.905525846702318
aF74.242424242424249
asI10
(lp11
I0
aF1.1363636363636365
aF44.791666666666664
aF63.636363636363633
aF69.981060606060609
aF73.768939393939391
aF76.609848484848484
aF78.503787878787875
aF79.924242424242422
aF81.155303030303031
aF82.102272727272734
asI11
(lp12
I0
aF20.512820512820515
aF58.474046278924327
aF75.672295184490309
aF82.864290181363359
aF85.616010006253916
aF88.180112570356471
aF89.430894308943095
aF90.306441525953716
aF90.994371482176362
aF91.369606003752352
asI12
(lp13
I0
aF2.6923076923076925
aF48.525641025641029
aF65.448717948717942
aF71.282051282051285
aF74.871794871794876
aF77.628205128205124
aF79.230769230769226
aF80.641025641025635
aF82.051282051282058
aF82.820512820512818
asI13
(lp14
I0
aF0.22522522522522523
aF46.171171171171174
aF64.414414414414409
aF69.669669669669673
aF72.822822822822829
aF75.6006006006006
aF76.876876876876878
aF78.153153153153156
aF79.354354354354356
aF80.48048048048048
asI14
(lp15
I0
aF3.7931034482758621
aF49.655172413793103
aF64.94252873563218
aF72.758620689655174
aF77.47126436781609
aF78.965517241379317
aF80.689655172413794
aF82.41379310344827
aF83.333333333333329
aF83.563218390804593
as.