(dp1
I1
(lp2
I0
aF35.375494071146242
aF80.830039525691703
aF86.956521739130437
aF89.920948616600796
aF92.292490118577078
aF94.268774703557312
aF96.047430830039531
aF96.442687747035578
aF96.640316205533594
aF96.837944664031625
asI2
(lp3
I0
aF20.424403183023873
aF76.326259946949605
aF84.08488063660478
aF87.245800176834663
aF88.94783377541998
aF90.384615384615387
aF91.290893015030946
aF91.88770999115826
aF92.595048629531391
aF92.948717948717942
asI3
(lp4
I0
aF7.3903002309468819
aF29.445727482678983
aF37.990762124711317
aF43.187066974595844
aF45.842956120092381
aF47.690531177829101
aF48.84526558891455
aF50.808314087759818
aF51.732101616628178
aF53.233256351039259
asI4
(lp5
I0
aF7.9043372517227404
aF65.464126469396021
aF75.476286988244837
aF79.32711795703284
aF82.36724766923389
aF84.475070936359955
aF85.285772192946894
aF86.380218889339275
aF86.907174706120799
aF87.393595460072959
asI5
(lp6
I0
aF34.980237154150196
aF79.841897233201578
aF87.944664031620547
aF91.304347826086953
aF93.675889328063235
aF94.664031620553359
aF95.256916996047437
aF95.652173913043484
aF96.442687747035578
aF97.233201581027672
asI6
(lp7
I0
aF1.7137096774193548
aF24.092741935483872
aF32.862903225806448
aF39.616935483870968
aF44.657258064516128
aF48.689516129032256
aF52.016129032258064
aF54.33467741935484
aF56.854838709677416
aF59.274193548387096
asI7
(lp8
I0
aF1.8472906403940887
aF27.216748768472907
aF42.980295566502463
aF48.399014778325125
aF51.847290640394085
aF54.556650246305416
aF57.142857142857146
aF58.497536945812811
aF59.729064039408868
aF60.344827586206897
asI8
(lp9
I0
aF37.612612612612615
aF86.411411411411407
aF92.192192192192195
aF95.270270270270274
aF95.870870870870874
aF96.396396396396398
aF96.846846846846844
aF97.297297297297291
aF97.597597597597598
aF97.747747747747752
asI9
(lp10
I0
aF20.855614973262032
aF59.803921568627452
aF86.809269162210342
aF92.780748663101605
aF95.365418894830654
aF96.345811051693403
aF97.147950089126553
aF97.860962566844918
aF98.484848484848484
aF98.484848484848484
asI10
(lp11
I0
aF6.0606060606060606
aF77.651515151515156
aF83.617424242424249
aF89.393939393939391
aF93.371212121212125
aF95.170454545454547
aF96.401515151515156
aF97.159090909090907
aF97.632575757575751
aF98.106060606060609
asI11
(lp12
I0
aF75.734834271419643
aF92.245153220762973
aF94.496560350218886
aF95.121951219512198
aF95.247029393370852
aF95.434646654158854
aF95.559724828017508
aF96.372732958098808
aF96.62288930581613
aF96.747967479674799
asI12
(lp13
I0
aF10.320512820512821
aF64.038461538461533
aF79.935897435897431
aF88.269230769230774
aF90.897435897435898
aF92.820512820512818
aF93.974358974358978
aF95.064102564102569
aF95.769230769230774
aF96.15384615384616
asI13
(lp14
I0
aF5.03003003003003
aF88.663663663663669
aF93.018018018018012
aF93.768768768768766
aF95.045045045045043
aF95.420420420420427
aF95.870870870870874
aF96.021021021021028
aF96.321321321321321
aF96.696696696696691
asI14
(lp15
I0
aF15.632183908045977
aF67.356321839080465
aF77.58620689655173
aF83.563218390804593
aF87.241379310344826
aF88.850574712643677
aF90.229885057471265
aF90.919540229885058
aF91.609195402298852
aF92.298850574712645
as.