(dp1
I1
(lp2
I0
aF12.450592885375494
aF68.379446640316203
aF76.482213438735172
aF80.830039525691703
aF82.411067193675891
aF83.992094861660078
aF85.177865612648219
aF86.758893280632407
aF86.956521739130437
aF87.944664031620547
asI2
(lp3
I0
aF4.9292661361626875
aF69.230769230769226
aF78.735632183908052
aF83.222811671087527
aF85.897435897435898
aF87.621573828470375
aF88.92572944297082
aF89.478337754199828
aF90.274093722369585
aF90.804597701149419
asI3
(lp4
I0
aF7.043879907621247
aF15.704387990762125
aF19.745958429561203
aF23.094688221709006
aF25.866050808314089
aF27.944572748267898
aF29.099307159353348
aF30.023094688221708
aF30.831408775981526
aF31.408775981524251
asI4
(lp5
I0
aF1.1349817592217268
aF25.41548439400081
aF42.237535468179978
aF51.520064856100525
aF57.438184029185244
aF60.275638427239564
aF63.032022699635185
aF65.099310903931908
aF66.355897851641672
aF67.612484799351435
asI5
(lp6
I0
aF8.4980237154150196
aF56.916996047430828
aF68.181818181818187
aF73.913043478260875
aF77.667984189723313
aF80.237154150197625
aF81.818181818181813
aF83.003952569169954
aF84.189723320158109
aF85.37549407114625
asI6
(lp7
I0
aF0.10080645161290322
aF8.064516129032258
aF18.649193548387096
aF23.68951612903226
aF27.923387096774192
aF31.754032258064516
aF34.778225806451616
aF36.99596774193548
aF39.616935483870968
aF41.33064516129032
asI7
(lp8
I0
aF0.12315270935960591
aF14.408866995073891
aF26.23152709359606
aF32.512315270935957
aF35.837438423645317
aF38.669950738916256
aF40.763546798029559
aF42.241379310344826
aF43.96551724137931
aF45.689655172413794
asI8
(lp9
I0
aF4.8048048048048049
aF56.006006006006004
aF71.321321321321321
aF76.801801801801801
aF80.030030030030034
aF82.807807807807805
aF85.13513513513513
aF86.336336336336331
aF87.162162162162161
aF87.987987987987992
asI9
(lp10
I0
aF0.89126559714795006
aF19.518716577540108
aF43.404634581105171
aF52.406417112299465
aF57.219251336898395
aF61.319073083778967
aF63.36898395721925
aF65.240641711229941
aF67.201426024955438
aF69.162210338680921
asI10
(lp11
I0
aF1.0416666666666667
aF44.31818181818182
aF59.94318181818182
aF67.61363636363636
aF72.348484848484844
aF76.13636363636364
aF79.356060606060609
aF81.25
aF82.38636363636364
aF83.617424242424249
asI11
(lp12
I0
aF40.900562851782361
aF81.363352095059412
aF87.617260787992493
aF90.118824265165728
aF92.057535959974985
aF93.183239524702941
aF93.621013133208251
aF93.996247654784241
aF94.121325828642895
aF94.183864915572229
asI12
(lp13
I0
aF1.858974358974359
aF51.92307692307692
aF63.653846153846153
aF71.474358974358978
aF74.358974358974365
aF76.602564102564102
aF78.333333333333329
aF79.358974358974365
aF80.192307692307693
aF80.897435897435898
asI13
(lp14
I0
aF0.97597597597597596
aF49.6996996996997
aF60.285285285285283
aF65.315315315315317
aF69.294294294294289
aF71.921921921921921
aF73.723723723723722
aF75.075075075075077
aF76.501501501501508
aF77.552552552552555
asI14
(lp15
I0
aF1.4942528735632183
aF28.850574712643677
aF45.287356321839077
aF57.011494252873561
aF62.873563218390807
aF66.551724137931032
aF69.310344827586206
aF71.494252873563212
aF72.8735632183908
aF74.94252873563218
as.